target datalayout = "e-m:e-p270:32:32-p271:32:32-p272:64:64-i64:64-i128:128-f80:128-n8:16:32:64-S128"
target triple = "x86_64-pc-linux-gnu"

@.str.26 = private unnamed_addr constant [28 x i8] c"buffer access out of bounds\00", align 1
@.str.27 = private unnamed_addr constant [6 x i8] c"count\00", align 1
@.str.28 = private unnamed_addr constant [23 x i8] c"string length overflow\00", align 1

; Function Attrs: mustprogress uwtable
define internal noundef i32 @_ZL18buffer_writestringP9lua_State(ptr noundef %0) #0 {
  %2 = alloca ptr, align 8
  %3 = alloca i64, align 8
  %4 = alloca ptr, align 8
  %5 = alloca i32, align 4
  %6 = alloca i64, align 8
  %7 = alloca ptr, align 8
  %8 = alloca i32, align 4
  store ptr %0, ptr %2, align 8
  store i64 0, ptr %3, align 8
  %9 = load ptr, ptr %2, align 8
  %10 = call noundef ptr @_Z16luaL_checkbufferP9lua_StateiPm(ptr noundef %9, i32 noundef 1, ptr noundef %3)
  store ptr %10, ptr %4, align 8
  %11 = load ptr, ptr %2, align 8
  %12 = call noundef i32 @_Z17luaL_checkintegerP9lua_Statei(ptr noundef %11, i32 noundef 2)
  store i32 %12, ptr %5, align 4
  store i64 0, ptr %6, align 8
  %13 = load ptr, ptr %2, align 8
  %14 = call noundef ptr @_Z17luaL_checklstringP9lua_StateiPm(ptr noundef %13, i32 noundef 3, ptr noundef %6)
  store ptr %14, ptr %7, align 8
  %15 = load ptr, ptr %2, align 8
  %16 = load i64, ptr %6, align 8
  %17 = trunc i64 %16 to i32
  %18 = call noundef i32 @_Z15luaL_optintegerP9lua_Stateii(ptr noundef %15, i32 noundef 4, i32 noundef %17)
  store i32 %18, ptr %8, align 4
  %19 = load i32, ptr %8, align 4
  %20 = icmp sge i32 %19, 0
  br i1 %20, label %21, label %22

21:                                               ; preds = %1
  br label %25

22:                                               ; preds = %1
  %23 = load ptr, ptr %2, align 8
  call void @_Z14luaL_argerrorLP9lua_StateiPKc(ptr noundef %23, i32 noundef 4, ptr noundef @.str.27) #5
  unreachable

24:                                               ; No predecessors!
  br label %25

25:                                               ; preds = %24, %21
  %26 = load i32, ptr %8, align 4
  %27 = sext i32 %26 to i64
  %28 = load i64, ptr %6, align 8
  %29 = icmp ugt i64 %27, %28
  br i1 %29, label %30, label %32

30:                                               ; preds = %25
  %31 = load ptr, ptr %2, align 8
  call void (ptr, ptr, ...) @_Z11luaL_errorLP9lua_StatePKcz(ptr noundef %31, ptr noundef @.str.28) #5
  unreachable

32:                                               ; preds = %25
  %33 = load i32, ptr %5, align 4
  %34 = zext i32 %33 to i64
  %35 = load i32, ptr %8, align 4
  %36 = zext i32 %35 to i64
  %37 = add i64 %34, %36
  %38 = load i64, ptr %3, align 8
  %39 = icmp ugt i64 %37, %38
  br i1 %39, label %40, label %42

40:                                               ; preds = %32
  %41 = load ptr, ptr %2, align 8
  call void (ptr, ptr, ...) @_Z11luaL_errorLP9lua_StatePKcz(ptr noundef %41, ptr noundef @.str.26) #5
  unreachable

42:                                               ; preds = %32
  %43 = load ptr, ptr %4, align 8
  %44 = load i32, ptr %5, align 4
  %45 = sext i32 %44 to i64
  %46 = getelementptr inbounds i8, ptr %43, i64 %45
  %47 = load ptr, ptr %7, align 8
  %48 = load i32, ptr %8, align 4
  %49 = sext i32 %48 to i64
  call void @llvm.memcpy.p0.p0.i64(ptr align 1 %46, ptr align 1 %47, i64 %49, i1 false)
  ret i32 0
}