; Function Attrs: mustprogress uwtable
define internal noundef i32 @_ZL18buffer_writestringP9lua_State(ptr noundef %0) #0 {
  %2 = alloca i64, align 8
  %3 = alloca i64, align 8
  store i64 0, ptr %2, align 8
  %4 = call noundef ptr @_Z16luaL_checkbufferP9lua_StateiPm(ptr noundef %0, i32 noundef 1, ptr noundef nonnull %2)
  %5 = call noundef i32 @_Z17luaL_checkintegerP9lua_Statei(ptr noundef %0, i32 noundef 2)
  store i64 0, ptr %3, align 8
  %6 = call noundef ptr @_Z17luaL_checklstringP9lua_StateiPm(ptr noundef %0, i32 noundef 3, ptr noundef nonnull %3)
  %7 = load i64, ptr %3, align 8
  %8 = trunc i64 %7 to i32
  %9 = call noundef i32 @_Z15luaL_optintegerP9lua_Stateii(ptr noundef %0, i32 noundef 4, i32 noundef %8)
  %10 = icmp sgt i32 %9, -1
  br i1 %10, label %12, label %11

11:                                               ; preds = %1
  call void @_Z14luaL_argerrorLP9lua_StateiPKc(ptr noundef %0, i32 noundef 4, ptr noundef nonnull @.str.27) #5
  unreachable

12:                                               ; preds = %1
  %13 = zext nneg i32 %9 to i64
  %14 = load i64, ptr %3, align 8
  %15 = icmp ult i64 %14, %13
  br i1 %15, label %16, label %17

16:                                               ; preds = %12
  call void (ptr, ptr, ...) @_Z11luaL_errorLP9lua_StatePKcz(ptr noundef %0, ptr noundef nonnull @.str.28) #5
  unreachable

17:                                               ; preds = %12
  %18 = zext i32 %5 to i64
  %19 = add nuw nsw i64 %13, %18
  %20 = load i64, ptr %2, align 8
  %21 = icmp ugt i64 %19, %20
  br i1 %21, label %22, label %23

22:                                               ; preds = %17
  call void (ptr, ptr, ...) @_Z11luaL_errorLP9lua_StatePKcz(ptr noundef %0, ptr noundef nonnull @.str.26) #5
  unreachable

23:                                               ; preds = %17
  %24 = sext i32 %5 to i64
  %25 = getelementptr inbounds i8, ptr %4, i64 %24
  call void @llvm.memcpy.p0.p0.i64(ptr align 1 %25, ptr align 1 %6, i64 %13, i1 false)
  ret i32 0
}